; ModuleID = '38/1100.c'
source_filename = "38/1100.c"
target datalayout = "e-m:e-p270:32:32-p271:32:32-p272:64:64-i64:64-f80:128-n8:16:32:64-S128"
target triple = "x86_64-pc-linux-gnu"

@.str = private unnamed_addr constant [3 x i8] c"%d\00", align 1
@.str.1 = private unnamed_addr constant [4 x i8] c"%lf\00", align 1
@.str.2 = private unnamed_addr constant [6 x i8] c"%.5f\0A\00", align 1

; Function Attrs: noinline nounwind uwtable
define dso_local void @main() #0 {
  %1 = alloca [1000 x double], align 16
  %2 = alloca double, align 8
  %3 = alloca double, align 8
  %4 = alloca [1000 x double*], align 16
  %5 = alloca double, align 8
  %6 = alloca i32, align 4
  %7 = alloca i32, align 4
  %8 = alloca i32, align 4
  %9 = call i32 (i8*, ...) @__isoc99_scanf(i8* getelementptr inbounds ([3 x i8], [3 x i8]* @.str, i64 0, i64 0), i32* %7)
  store i32 0, i32* %6, align 4
  br label %10

10:                                               ; preds = %22, %0
  %11 = load i32, i32* %6, align 4
  %12 = icmp slt i32 %11, 1000
  br i1 %12, label %13, label %25

13:                                               ; preds = %10
  %14 = getelementptr inbounds [1000 x double], [1000 x double]* %1, i64 0, i64 0
  %15 = load i32, i32* %6, align 4
  %16 = sext i32 %15 to i64
  %17 = getelementptr inbounds double, double* %14, i64 %16
  %18 = getelementptr inbounds [1000 x double*], [1000 x double*]* %4, i64 0, i64 0
  %19 = load i32, i32* %6, align 4
  %20 = sext i32 %19 to i64
  %21 = getelementptr inbounds double*, double** %18, i64 %20
  store double* %17, double** %21, align 8
  br label %22

22:                                               ; preds = %13
  %23 = load i32, i32* %6, align 4
  %24 = add nsw i32 %23, 1
  store i32 %24, i32* %6, align 4
  br label %10

25:                                               ; preds = %10
  br label %26

26:                                               ; preds = %86, %25
  %27 = load i32, i32* %7, align 4
  %28 = add nsw i32 %27, -1
  store i32 %28, i32* %7, align 4
  %29 = icmp ne i32 %27, 0
  br i1 %29, label %30, label %94

30:                                               ; preds = %26
  %31 = call i32 (i8*, ...) @__isoc99_scanf(i8* getelementptr inbounds ([3 x i8], [3 x i8]* @.str, i64 0, i64 0), i32* %8)
  store double 0.000000e+00, double* %5, align 8
  store i32 0, i32* %6, align 4
  br label %32

32:                                               ; preds = %51, %30
  %33 = load i32, i32* %6, align 4
  %34 = load i32, i32* %8, align 4
  %35 = icmp slt i32 %33, %34
  br i1 %35, label %36, label %54

36:                                               ; preds = %32
  %37 = getelementptr inbounds [1000 x double*], [1000 x double*]* %4, i64 0, i64 0
  %38 = load i32, i32* %6, align 4
  %39 = sext i32 %38 to i64
  %40 = getelementptr inbounds double*, double** %37, i64 %39
  %41 = load double*, double** %40, align 8
  %42 = call i32 (i8*, ...) @__isoc99_scanf(i8* getelementptr inbounds ([4 x i8], [4 x i8]* @.str.1, i64 0, i64 0), double* %41)
  %43 = getelementptr inbounds [1000 x double*], [1000 x double*]* %4, i64 0, i64 0
  %44 = load i32, i32* %6, align 4
  %45 = sext i32 %44 to i64
  %46 = getelementptr inbounds double*, double** %43, i64 %45
  %47 = load double*, double** %46, align 8
  %48 = load double, double* %47, align 8
  %49 = load double, double* %5, align 8
  %50 = fadd double %49, %48
  store double %50, double* %5, align 8
  br label %51

51:                                               ; preds = %36
  %52 = load i32, i32* %6, align 4
  %53 = add nsw i32 %52, 1
  store i32 %53, i32* %6, align 4
  br label %32

54:                                               ; preds = %32
  %55 = load double, double* %5, align 8
  %56 = load i32, i32* %8, align 4
  %57 = sitofp i32 %56 to double
  %58 = fdiv double %55, %57
  store double %58, double* %3, align 8
  store double 0.000000e+00, double* %2, align 8
  store i32 0, i32* %6, align 4
  br label %59

59:                                               ; preds = %83, %54
  %60 = load i32, i32* %6, align 4
  %61 = load i32, i32* %8, align 4
  %62 = icmp slt i32 %60, %61
  br i1 %62, label %63, label %86

63:                                               ; preds = %59
  %64 = getelementptr inbounds [1000 x double*], [1000 x double*]* %4, i64 0, i64 0
  %65 = load i32, i32* %6, align 4
  %66 = sext i32 %65 to i64
  %67 = getelementptr inbounds double*, double** %64, i64 %66
  %68 = load double*, double** %67, align 8
  %69 = load double, double* %68, align 8
  %70 = load double, double* %3, align 8
  %71 = fsub double %69, %70
  %72 = getelementptr inbounds [1000 x double*], [1000 x double*]* %4, i64 0, i64 0
  %73 = load i32, i32* %6, align 4
  %74 = sext i32 %73 to i64
  %75 = getelementptr inbounds double*, double** %72, i64 %74
  %76 = load double*, double** %75, align 8
  %77 = load double, double* %76, align 8
  %78 = load double, double* %3, align 8
  %79 = fsub double %77, %78
  %80 = fmul double %71, %79
  %81 = load double, double* %2, align 8
  %82 = fadd double %81, %80
  store double %82, double* %2, align 8
  br label %83

83:                                               ; preds = %63
  %84 = load i32, i32* %6, align 4
  %85 = add nsw i32 %84, 1
  store i32 %85, i32* %6, align 4
  br label %59

86:                                               ; preds = %59
  %87 = load double, double* %2, align 8
  %88 = load i32, i32* %8, align 4
  %89 = sitofp i32 %88 to double
  %90 = fdiv double %87, %89
  %91 = call double @sqrt(double %90) #3
  store double %91, double* %2, align 8
  %92 = load double, double* %2, align 8
  %93 = call i32 (i8*, ...) @printf(i8* getelementptr inbounds ([6 x i8], [6 x i8]* @.str.2, i64 0, i64 0), double %92)
  br label %26

94:                                               ; preds = %26
  ret void
}

declare dso_local i32 @__isoc99_scanf(i8*, ...) #1

; Function Attrs: nounwind
declare dso_local double @sqrt(double) #2

declare dso_local i32 @printf(i8*, ...) #1


!llvm.module.flags = !{!0}
!llvm.ident = !{!1}

!0 = !{i32 1, !"wchar_size", i32 4}
!1 = !{!"clang version 10.0.0-4ubuntu1 "}
